; ModuleID = '46/2593.c'
source_filename = "46/2593.c"
target datalayout = "e-m:e-p270:32:32-p271:32:32-p272:64:64-i64:64-f80:128-n8:16:32:64-S128"
target triple = "x86_64-pc-linux-gnu"

@.str = private unnamed_addr constant [6 x i8] c"%d %d\00", align 1
@.str.1 = private unnamed_addr constant [3 x i8] c"%d\00", align 1
@.str.2 = private unnamed_addr constant [4 x i8] c"%d\0A\00", align 1

; Function Attrs: noinline nounwind uwtable
define dso_local void @main() #0 {
  %1 = alloca i32, align 4
  %2 = alloca i32, align 4
  %3 = alloca i32, align 4
  %4 = alloca i32, align 4
  %5 = alloca [100 x [100 x i32]], align 16
  %6 = alloca i32, align 4
  %7 = alloca i32, align 4
  %8 = alloca i32, align 4
  %9 = alloca i32, align 4
  %10 = alloca i32, align 4
  store i32 0, i32* %7, align 4
  store i32 1, i32* %8, align 4
  %11 = call i32 (i8*, ...) @__isoc99_scanf(i8* getelementptr inbounds ([6 x i8], [6 x i8]* @.str, i64 0, i64 0), i32* %1, i32* %2)
  store i32 0, i32* %3, align 4
  br label %12

12:                                               ; preds = %33, %0
  %13 = load i32, i32* %3, align 4
  %14 = load i32, i32* %1, align 4
  %15 = icmp slt i32 %13, %14
  br i1 %15, label %16, label %36

16:                                               ; preds = %12
  store i32 0, i32* %4, align 4
  br label %17

17:                                               ; preds = %29, %16
  %18 = load i32, i32* %4, align 4
  %19 = load i32, i32* %2, align 4
  %20 = icmp slt i32 %18, %19
  br i1 %20, label %21, label %32

21:                                               ; preds = %17
  %22 = load i32, i32* %3, align 4
  %23 = sext i32 %22 to i64
  %24 = getelementptr inbounds [100 x [100 x i32]], [100 x [100 x i32]]* %5, i64 0, i64 %23
  %25 = load i32, i32* %4, align 4
  %26 = sext i32 %25 to i64
  %27 = getelementptr inbounds [100 x i32], [100 x i32]* %24, i64 0, i64 %26
  %28 = call i32 (i8*, ...) @__isoc99_scanf(i8* getelementptr inbounds ([3 x i8], [3 x i8]* @.str.1, i64 0, i64 0), i32* %27)
  br label %29

29:                                               ; preds = %21
  %30 = load i32, i32* %4, align 4
  %31 = add nsw i32 %30, 1
  store i32 %31, i32* %4, align 4
  br label %17

32:                                               ; preds = %17
  br label %33

33:                                               ; preds = %32
  %34 = load i32, i32* %3, align 4
  %35 = add nsw i32 %34, 1
  store i32 %35, i32* %3, align 4
  br label %12

36:                                               ; preds = %12
  store i32 0, i32* %3, align 4
  store i32 0, i32* %4, align 4
  %37 = load i32, i32* %2, align 4
  %38 = load i32, i32* %1, align 4
  %39 = icmp slt i32 %37, %38
  br i1 %39, label %40, label %44

40:                                               ; preds = %36
  %41 = load i32, i32* %2, align 4
  %42 = mul nsw i32 2, %41
  %43 = add nsw i32 %42, 1
  store i32 %43, i32* %6, align 4
  br label %47

44:                                               ; preds = %36
  %45 = load i32, i32* %1, align 4
  %46 = mul nsw i32 2, %45
  store i32 %46, i32* %6, align 4
  br label %47

47:                                               ; preds = %44, %40
  %48 = load i32, i32* %6, align 4
  store i32 %48, i32* %10, align 4
  br label %49

49:                                               ; preds = %195, %47
  %50 = load i32, i32* %6, align 4
  %51 = icmp ne i32 %50, 1
  br i1 %51, label %52, label %198

52:                                               ; preds = %49
  %53 = load i32, i32* %6, align 4
  %54 = srem i32 %53, 4
  %55 = load i32, i32* %10, align 4
  %56 = srem i32 %55, 4
  %57 = icmp eq i32 %54, %56
  br i1 %57, label %58, label %86

58:                                               ; preds = %52
  %59 = load i32, i32* %2, align 4
  %60 = load i32, i32* %7, align 4
  %61 = sub nsw i32 %59, %60
  store i32 %61, i32* %9, align 4
  br label %62

62:                                               ; preds = %76, %58
  %63 = load i32, i32* %9, align 4
  %64 = icmp ne i32 %63, 0
  br i1 %64, label %65, label %79

65:                                               ; preds = %62
  %66 = load i32, i32* %3, align 4
  %67 = sext i32 %66 to i64
  %68 = getelementptr inbounds [100 x [100 x i32]], [100 x [100 x i32]]* %5, i64 0, i64 %67
  %69 = load i32, i32* %4, align 4
  %70 = sext i32 %69 to i64
  %71 = getelementptr inbounds [100 x i32], [100 x i32]* %68, i64 0, i64 %70
  %72 = load i32, i32* %71, align 4
  %73 = call i32 (i8*, ...) @printf(i8* getelementptr inbounds ([4 x i8], [4 x i8]* @.str.2, i64 0, i64 0), i32 %72)
  %74 = load i32, i32* %9, align 4
  %75 = add nsw i32 %74, -1
  store i32 %75, i32* %9, align 4
  br label %76

76:                                               ; preds = %65
  %77 = load i32, i32* %4, align 4
  %78 = add nsw i32 %77, 1
  store i32 %78, i32* %4, align 4
  br label %62

79:                                               ; preds = %62
  %80 = load i32, i32* %7, align 4
  %81 = add nsw i32 %80, 1
  store i32 %81, i32* %7, align 4
  %82 = load i32, i32* %4, align 4
  %83 = add nsw i32 %82, -1
  store i32 %83, i32* %4, align 4
  %84 = load i32, i32* %3, align 4
  %85 = add nsw i32 %84, 1
  store i32 %85, i32* %3, align 4
  br label %194

86:                                               ; preds = %52
  %87 = load i32, i32* %6, align 4
  %88 = srem i32 %87, 4
  %89 = load i32, i32* %10, align 4
  %90 = sub nsw i32 %89, 1
  %91 = srem i32 %90, 4
  %92 = icmp eq i32 %88, %91
  br i1 %92, label %93, label %121

93:                                               ; preds = %86
  %94 = load i32, i32* %1, align 4
  %95 = load i32, i32* %8, align 4
  %96 = sub nsw i32 %94, %95
  store i32 %96, i32* %9, align 4
  br label %97

97:                                               ; preds = %111, %93
  %98 = load i32, i32* %9, align 4
  %99 = icmp ne i32 %98, 0
  br i1 %99, label %100, label %114

100:                                              ; preds = %97
  %101 = load i32, i32* %3, align 4
  %102 = sext i32 %101 to i64
  %103 = getelementptr inbounds [100 x [100 x i32]], [100 x [100 x i32]]* %5, i64 0, i64 %102
  %104 = load i32, i32* %4, align 4
  %105 = sext i32 %104 to i64
  %106 = getelementptr inbounds [100 x i32], [100 x i32]* %103, i64 0, i64 %105
  %107 = load i32, i32* %106, align 4
  %108 = call i32 (i8*, ...) @printf(i8* getelementptr inbounds ([4 x i8], [4 x i8]* @.str.2, i64 0, i64 0), i32 %107)
  %109 = load i32, i32* %9, align 4
  %110 = add nsw i32 %109, -1
  store i32 %110, i32* %9, align 4
  br label %111

111:                                              ; preds = %100
  %112 = load i32, i32* %3, align 4
  %113 = add nsw i32 %112, 1
  store i32 %113, i32* %3, align 4
  br label %97

114:                                              ; preds = %97
  %115 = load i32, i32* %8, align 4
  %116 = add nsw i32 %115, 1
  store i32 %116, i32* %8, align 4
  %117 = load i32, i32* %3, align 4
  %118 = add nsw i32 %117, -1
  store i32 %118, i32* %3, align 4
  %119 = load i32, i32* %4, align 4
  %120 = add nsw i32 %119, -1
  store i32 %120, i32* %4, align 4
  br label %193

121:                                              ; preds = %86
  %122 = load i32, i32* %6, align 4
  %123 = srem i32 %122, 4
  %124 = load i32, i32* %10, align 4
  %125 = sub nsw i32 %124, 2
  %126 = srem i32 %125, 4
  %127 = icmp eq i32 %123, %126
  br i1 %127, label %128, label %156

128:                                              ; preds = %121
  %129 = load i32, i32* %2, align 4
  %130 = load i32, i32* %7, align 4
  %131 = sub nsw i32 %129, %130
  store i32 %131, i32* %9, align 4
  br label %132

132:                                              ; preds = %146, %128
  %133 = load i32, i32* %9, align 4
  %134 = icmp ne i32 %133, 0
  br i1 %134, label %135, label %149

135:                                              ; preds = %132
  %136 = load i32, i32* %3, align 4
  %137 = sext i32 %136 to i64
  %138 = getelementptr inbounds [100 x [100 x i32]], [100 x [100 x i32]]* %5, i64 0, i64 %137
  %139 = load i32, i32* %4, align 4
  %140 = sext i32 %139 to i64
  %141 = getelementptr inbounds [100 x i32], [100 x i32]* %138, i64 0, i64 %140
  %142 = load i32, i32* %141, align 4
  %143 = call i32 (i8*, ...) @printf(i8* getelementptr inbounds ([4 x i8], [4 x i8]* @.str.2, i64 0, i64 0), i32 %142)
  %144 = load i32, i32* %9, align 4
  %145 = add nsw i32 %144, -1
  store i32 %145, i32* %9, align 4
  br label %146

146:                                              ; preds = %135
  %147 = load i32, i32* %4, align 4
  %148 = add nsw i32 %147, -1
  store i32 %148, i32* %4, align 4
  br label %132

149:                                              ; preds = %132
  %150 = load i32, i32* %7, align 4
  %151 = add nsw i32 %150, 1
  store i32 %151, i32* %7, align 4
  %152 = load i32, i32* %4, align 4
  %153 = add nsw i32 %152, 1
  store i32 %153, i32* %4, align 4
  %154 = load i32, i32* %3, align 4
  %155 = add nsw i32 %154, -1
  store i32 %155, i32* %3, align 4
  br label %192

156:                                              ; preds = %121
  %157 = load i32, i32* %6, align 4
  %158 = srem i32 %157, 4
  %159 = load i32, i32* %10, align 4
  %160 = sub nsw i32 %159, 3
  %161 = srem i32 %160, 4
  %162 = icmp eq i32 %158, %161
  br i1 %162, label %163, label %191

163:                                              ; preds = %156
  %164 = load i32, i32* %1, align 4
  %165 = load i32, i32* %8, align 4
  %166 = sub nsw i32 %164, %165
  store i32 %166, i32* %9, align 4
  br label %167

167:                                              ; preds = %181, %163
  %168 = load i32, i32* %9, align 4
  %169 = icmp ne i32 %168, 0
  br i1 %169, label %170, label %184

170:                                              ; preds = %167
  %171 = load i32, i32* %3, align 4
  %172 = sext i32 %171 to i64
  %173 = getelementptr inbounds [100 x [100 x i32]], [100 x [100 x i32]]* %5, i64 0, i64 %172
  %174 = load i32, i32* %4, align 4
  %175 = sext i32 %174 to i64
  %176 = getelementptr inbounds [100 x i32], [100 x i32]* %173, i64 0, i64 %175
  %177 = load i32, i32* %176, align 4
  %178 = call i32 (i8*, ...) @printf(i8* getelementptr inbounds ([4 x i8], [4 x i8]* @.str.2, i64 0, i64 0), i32 %177)
  %179 = load i32, i32* %9, align 4
  %180 = add nsw i32 %179, -1
  store i32 %180, i32* %9, align 4
  br label %181

181:                                              ; preds = %170
  %182 = load i32, i32* %3, align 4
  %183 = add nsw i32 %182, -1
  store i32 %183, i32* %3, align 4
  br label %167

184:                                              ; preds = %167
  %185 = load i32, i32* %8, align 4
  %186 = add nsw i32 %185, 1
  store i32 %186, i32* %8, align 4
  %187 = load i32, i32* %3, align 4
  %188 = add nsw i32 %187, 1
  store i32 %188, i32* %3, align 4
  %189 = load i32, i32* %4, align 4
  %190 = add nsw i32 %189, 1
  store i32 %190, i32* %4, align 4
  br label %191

191:                                              ; preds = %184, %156
  br label %192

192:                                              ; preds = %191, %149
  br label %193

193:                                              ; preds = %192, %114
  br label %194

194:                                              ; preds = %193, %79
  br label %195

195:                                              ; preds = %194
  %196 = load i32, i32* %6, align 4
  %197 = add nsw i32 %196, -1
  store i32 %197, i32* %6, align 4
  br label %49

198:                                              ; preds = %49
  ret void
}

declare dso_local i32 @__isoc99_scanf(i8*, ...) #1

declare dso_local i32 @printf(i8*, ...) #1


!llvm.module.flags = !{!0}
!llvm.ident = !{!1}

!0 = !{i32 1, !"wchar_size", i32 4}
!1 = !{!"clang version 10.0.0-4ubuntu1 "}
